ccopy_reg
_reconstructor
p0
(cFWCore.ParameterSet.Config
Process
p1
c__builtin__
object
p2
Ntp3
Rp4
(dp5
S'MessageLogger'
p6
g0
(cFWCore.ParameterSet.Modules
Service
p7
g2
Ntp8
Rp9
(dp10
S'_isFrozen'
p11
I00
sS'suppressInfo'
p12
g0
(cFWCore.ParameterSet.Types
vstring
p13
c__builtin__
list
p14
(lp15
tp16
Rp17
(dp18
g11
I00
sS'_ParameterTypeBase__isTracked'
p19
I00
sS'_isModified'
p20
I00
sS'_nPerLine'
p21
I1
sbsS'suppressDebug'
p22
g0
(g13
g14
(lp23
tp24
Rp25
(dp26
g11
I00
sg19
I00
sg20
I00
sg21
I1
sbsS'cout'
p27
g0
(cFWCore.ParameterSet.Types
PSet
p28
g2
Ntp29
Rp30
(dp31
g11
I00
sg19
I00
sS'placeholder'
p32
g0
(cFWCore.ParameterSet.Types
bool
p33
g2
Ntp34
Rp35
(dp36
g11
I00
sg19
I00
sS'_value'
p37
I01
sg20
I00
sbsg20
I00
sS'_Parameterizable__parameterNames'
p38
(lp39
g32
asbsS'_lineNumber'
p40
I10
sS'debugModules'
p41
g0
(g13
g14
(lp42
tp43
Rp44
(dp45
g11
I00
sg19
I00
sg20
I00
sg21
I1
sbsS'_TypedParameterizable__type'
p46
g6
sS'fwkJobReports'
p47
g0
(g13
g14
(lp48
S'FrameworkJobReport'
p49
atp50
Rp51
(dp52
g11
I00
sg19
I00
sg20
I00
sg21
I1
sbsg38
(lp53
g12
aS'debugs'
p54
ag22
ag27
aS'cerr_stats'
p55
aS'warnings'
p56
aS'default'
p57
aS'statistics'
p58
aS'cerr'
p59
ag49
aS'suppressWarning'
p60
aS'errors'
p61
aS'destinations'
p62
ag41
aS'infos'
p63
aS'categories'
p64
ag47
asg58
g0
(g13
g14
(lp65
g55
atp66
Rp67
(dp68
g11
I00
sg19
I00
sg20
I00
sg21
I1
sbsS'_filename'
p69
S'/cvmfs/cms.cern.ch/slc6_amd64_gcc472/cms/cmssw/CMSSW_5_3_20/python/FWCore/ParameterSet/Modules.py'
p70
sg62
g0
(g13
g14
(lp71
g56
ag61
ag63
ag54
ag27
ag59
atp72
Rp73
(dp74
g11
I00
sg19
I00
sg20
I00
sg21
I1
sbsg54
g0
(g28
g2
Ntp75
Rp76
(dp77
g11
I00
sg19
I00
sg32
g0
(g33
g2
Ntp78
Rp79
(dp80
g11
I00
sg19
I00
sg37
I01
sg20
I00
sbsg20
I00
sg38
(lp81
g32
asbsg56
g0
(g28
g2
Ntp82
Rp83
(dp84
g11
I00
sg19
I00
sg32
g0
(g33
g2
Ntp85
Rp86
(dp87
g11
I00
sg19
I00
sg37
I01
sg20
I00
sbsg20
I00
sg38
(lp88
g32
asbsg61
g0
(g28
g2
Ntp89
Rp90
(dp91
g11
I00
sg19
I00
sg32
g0
(g33
g2
Ntp92
Rp93
(dp94
g11
I00
sg19
I00
sg37
I01
sg20
I00
sbsg20
I00
sg38
(lp95
g32
asbsg49
g0
(g28
g2
Ntp96
Rp97
(dp98
g11
I00
sg19
I00
sg20
I00
sg57
g0
(g28
g2
Ntp99
Rp100
(dp101
g11
I00
sg19
I00
sS'limit'
p102
g0
(cFWCore.ParameterSet.Types
int32
p103
g2
Ntp104
Rp105
(dp106
g11
I00
sg19
I00
sg37
I0
sg20
I00
sbsg20
I00
sg38
(lp107
g102
asbsS'FwkJob'
p108
g0
(g28
g2
Ntp109
Rp110
(dp111
g11
I00
sg19
I00
sg20
I00
sg102
g0
(g103
g2
Ntp112
Rp113
(dp114
g11
I00
sg19
I00
sg37
I10000000
sg20
I00
sbsg38
(lp115
S'optionalPSet'
p116
ag102
asg116
g0
(g33
g2
Ntp117
Rp118
(dp119
g11
I00
sg19
I00
sg37
I01
sg20
I00
sbsbsg38
(lp120
g57
ag116
ag108
asg116
g0
(g33
g2
Ntp121
Rp122
(dp123
g11
I00
sg19
I00
sg37
I01
sg20
I00
sbsbsg60
g0
(g13
g14
(lp124
tp125
Rp126
(dp127
g11
I00
sg19
I00
sg20
I00
sg21
I1
sbsg63
g0
(g28
g2
Ntp128
Rp129
(dp130
g11
I00
sg19
I00
sg20
I00
sS'Root_NoDictionary'
p131
g0
(g28
g2
Ntp132
Rp133
(dp134
g11
I00
sg19
I00
sg20
I00
sg102
g0
(g103
g2
Ntp135
Rp136
(dp137
g11
I00
sg19
I00
sg37
I0
sg20
I00
sbsg38
(lp138
g116
ag102
asg116
g0
(g33
g2
Ntp139
Rp140
(dp141
g11
I00
sg19
I00
sg37
I01
sg20
I00
sbsbsg38
(lp142
g116
ag131
ag32
asg116
g0
(g33
g2
Ntp143
Rp144
(dp145
g11
I00
sg19
I00
sg37
I01
sg20
I00
sbsg32
g0
(g33
g2
Ntp146
Rp147
(dp148
g11
I00
sg19
I00
sg37
I01
sg20
I00
sbsbsg64
g0
(g13
g14
(lp149
g108
aS'FwkReport'
p150
aS'FwkSummary'
p151
ag131
aS'TEST'
p152
atp153
Rp154
(dp155
g11
I00
sg19
I00
sg20
I00
sg21
I1
sbsg20
I00
sg55
g0
(g28
g2
Ntp156
Rp157
(dp158
g11
I00
sg19
I00
sg20
I00
sg116
g0
(g33
g2
Ntp159
Rp160
(dp161
g11
I00
sg19
I00
sg37
I01
sg20
I00
sbsg38
(lp162
S'threshold'
p163
aS'output'
p164
ag116
asg163
g0
(cFWCore.ParameterSet.Types
string
p165
g2
Ntp166
Rp167
(dp168
g11
I00
sg19
I00
sg37
S'WARNING'
p169
sg20
I00
sbsg164
g0
(g165
g2
Ntp170
Rp171
(dp172
g11
I00
sg19
I00
sg37
g59
sg20
I00
sbsbsg57
g0
(g28
g2
Ntp173
Rp174
(dp175
g11
I00
sg19
I00
sg20
I00
sg38
(lp176
sbsg59
g0
(g28
g2
Ntp177
Rp178
(dp179
g11
I00
sg19
I00
sS'noTimeStamps'
p180
g0
(g33
g2
Ntp181
Rp182
(dp183
g11
I00
sg19
I00
sg37
I00
sg20
I00
sbsg150
g0
(g28
g2
Ntp184
Rp185
(dp186
g11
I00
sg19
I00
sg20
I01
sS'reportEvery'
p187
g0
(g103
g2
Ntp188
Rp189
(dp190
g11
I00
sg19
I00
sg37
I5000
sg20
I00
sbsg102
g0
(g103
g2
Ntp191
Rp192
(dp193
g11
I00
sg19
I00
sg37
I10000000
sg20
I00
sbsg38
(lp194
g187
ag116
ag102
asg116
g0
(g33
g2
Ntp195
Rp196
(dp197
g11
I00
sg19
I00
sg37
I01
sg20
I00
sbsbsg20
I01
sg57
g0
(g28
g2
Ntp198
Rp199
(dp200
g11
I00
sg19
I00
sg102
g0
(g103
g2
Ntp201
Rp202
(dp203
g11
I00
sg19
I00
sg37
I10000000
sg20
I00
sbsg20
I00
sg38
(lp204
g102
asbsg131
g0
(g28
g2
Ntp205
Rp206
(dp207
g11
I00
sg19
I00
sg20
I00
sg102
g0
(g103
g2
Ntp208
Rp209
(dp210
g11
I00
sg19
I00
sg37
I0
sg20
I00
sbsg38
(lp211
g116
ag102
asg116
g0
(g33
g2
Ntp212
Rp213
(dp214
g11
I00
sg19
I00
sg37
I01
sg20
I00
sbsbsS'INFO'
p215
g0
(g28
g2
Ntp216
Rp217
(dp218
g11
I00
sg19
I00
sg102
g0
(g103
g2
Ntp219
Rp220
(dp221
g11
I00
sg19
I00
sg37
I-1
sg20
I00
sbsg20
I00
sg38
(lp222
g102
asbsg116
g0
(g33
g2
Ntp223
Rp224
(dp225
g11
I00
sg19
I00
sg37
I01
sg20
I00
sbsg108
g0
(g28
g2
Ntp226
Rp227
(dp228
g11
I00
sg19
I00
sg20
I00
sg102
g0
(g103
g2
Ntp229
Rp230
(dp231
g11
I00
sg19
I00
sg37
I0
sg20
I00
sbsg38
(lp232
g116
ag102
asg116
g0
(g33
g2
Ntp233
Rp234
(dp235
g11
I00
sg19
I00
sg37
I01
sg20
I00
sbsbsg151
g0
(g28
g2
Ntp236
Rp237
(dp238
g11
I00
sg19
I00
sg20
I00
sg187
g0
(g103
g2
Ntp239
Rp240
(dp241
g11
I00
sg19
I00
sg37
I1
sg20
I00
sbsg102
g0
(g103
g2
Ntp242
Rp243
(dp244
g11
I00
sg19
I00
sg37
I10000000
sg20
I00
sbsg38
(lp245
g187
ag116
ag102
asg116
g0
(g33
g2
Ntp246
Rp247
(dp248
g11
I00
sg19
I00
sg37
I01
sg20
I00
sbsbsg38
(lp249
g215
ag180
ag150
ag57
ag131
ag163
ag108
ag151
ag116
asg163
g0
(g165
g2
Ntp250
Rp251
(dp252
g11
I00
sg19
I00
sg37
g215
sg20
I00
sbsbsbsS'_Process__sequences'
p253
(dp254
sS'_Process__services'
p255
(dp256
g6
g9
sS'TFileService'
p257
g0
(g7
g2
Ntp258
Rp259
(dp260
g38
(lp261
S'fileName'
p262
asg11
I00
sg20
I00
sg40
I10
sg69
g70
sg262
g0
(g165
g2
Ntp263
Rp264
(dp265
g11
I00
sg19
I01
sg37
S'V0LambdaKshort.root'
p266
sg20
I00
sbsg46
g257
sbssS'_Process__source'
p267
g0
(cFWCore.ParameterSet.Modules
Source
p268
g2
Ntp269
Rp270
(dp271
g38
(lp272
S'fileNames'
p273
asg11
I00
sg20
I00
sg40
I175
sg69
g70
sg273
g0
(g13
g14
(lp274
S'/store/user/davidlw/PAMinBiasUPC/PA2013_FlowCorr_PromptReco_MB_Gplus_ReTracking_v18/25c9a89be536a41c8ccb3c75e9fd9358/pPb_HM_1000_1_Miz.root'
p275
aS'/store/user/davidlw/PAMinBiasUPC/PA2013_FlowCorr_PromptReco_MB_Gplus_ReTracking_v18/25c9a89be536a41c8ccb3c75e9fd9358/pPb_HM_1001_1_ahF.root '
p276
aS'/store/user/davidlw/PAMinBiasUPC/PA2013_FlowCorr_PromptReco_MB_Gplus_ReTracking_v18/25c9a89be536a41c8ccb3c75e9fd9358/pPb_HM_1002_1_mw5.root'
p277
aS'/store/user/davidlw/PAMinBiasUPC/PA2013_FlowCorr_PromptReco_MB_Gplus_ReTracking_v18/25c9a89be536a41c8ccb3c75e9fd9358/pPb_HM_1003_1_QW8.root'
p278
aS'/store/user/davidlw/PAMinBiasUPC/PA2013_FlowCorr_PromptReco_MB_Gplus_ReTracking_v18/25c9a89be536a41c8ccb3c75e9fd9358/pPb_HM_1004_2_0sy.root'
p279
aS'/store/user/davidlw/PAMinBiasUPC/PA2013_FlowCorr_PromptReco_MB_Gplus_ReTracking_v18/25c9a89be536a41c8ccb3c75e9fd9358/pPb_HM_1005_1_9tO.root'
p280
atp281
Rp282
(dp283
g11
I00
sg19
I00
sg20
I00
sg21
I1
sbsg46
S'PoolSource'
p284
sbsS'V0'
p285
g0
(cFWCore.ParameterSet.Modules
EDAnalyzer
p286
g2
Ntp287
Rp288
(dp289
g38
(lp290
S'multMin'
p291
aS'multMax'
p292
aS'generalV0Candidates'
p293
asg11
I00
sg20
I00
sg292
g0
(cFWCore.ParameterSet.Types
double
p294
g2
Ntp295
Rp296
(dp297
g11
I00
sg19
I00
sg37
I10000
sg20
I00
sbsg291
g0
(g294
g2
Ntp298
Rp299
(dp300
g11
I00
sg19
I00
sg37
I1
sg20
I00
sbsg40
I33
sg69
S'/afs/cern.ch/user/s/saepark/MyAnalyzer/CMSSW_5_3_20/src/Lambda/LambdaAnalyzer/lambdaanalyzer_cfg.py'
p301
sS'_Labelable__label'
p302
g285
sg46
S'LambdaAnalyzer'
p303
sg293
g0
(g165
g2
Ntp304
Rp305
(dp306
g11
I00
sg19
I00
sg37
g293
sg20
I00
sbsbsS'_Process__psets'
p307
(dp308
S'maxEvents'
p309
g0
(g28
g2
Ntp310
Rp311
(dp312
g11
I00
sg19
I00
sg20
I00
sg38
(lp313
S'input'
p314
asg302
g309
sg314
g0
(g103
g2
Ntp315
Rp316
(dp317
g11
I00
sg19
I00
sg37
I-1
sg20
I00
sbsbsS'options'
p318
g0
(g28
g2
Ntp319
Rp320
(dp321
g11
I00
sg19
I00
sg20
I00
sS'wantSummary'
p322
g0
(g33
g2
Ntp323
Rp324
(dp325
g11
I00
sg19
I00
sg37
I01
sg20
I00
sbsg38
(lp326
g322
asg302
g318
sbssg257
g259
sS'_Process__essources'
p327
(dp328
sg284
g270
sg309
g311
sS'source'
p329
g270
sS'_Process__vpsets'
p330
(dp331
sS'_Process__name'
p332
g152
sS'_cloneToObjectDict'
p333
(dp334
I38205072
g320
sI38986256
g311
sI38986384
g288
sI38986832
g0
(cFWCore.ParameterSet.SequenceTypes
Path
p335
g2
Ntp336
Rp337
(dp338
g11
I00
sS'_seq'
p339
g0
(cFWCore.ParameterSet.SequenceTypes
_SequenceCollection
p340
g2
Ntp341
Rp342
(dp343
S'_collection'
p344
(lp345
g288
asbsg20
I00
sg302
S'p'
p346
sbssS'_Process__esprefers'
p347
(dp348
sS'_Process__isStrict'
p349
I00
sS'_Process__partialschedules'
p350
(dp351
sS'_Process__outputmodules'
p352
(dp353
sS'_Process__analyzers'
p354
(dp355
g285
g288
ssS'_Process__InExtendCall'
p356
I00
sS'_Process__producers'
p357
(dp358
sS'_Process__filters'
p359
(dp360
sS'_Process__looper'
p361
NsS'_Process__endpaths'
p362
g0
(cFWCore.ParameterSet.DictTypes
SortedKeysDict
p363
c__builtin__
dict
p364
(dp365
tp366
Rp367
(dp368
S'list'
p369
(lp370
sbsS'_Process__esproducers'
p371
(dp372
sg346
g337
sS'_Process__paths'
p373
g0
(g363
g364
(dp374
g346
g337
stp375
Rp376
(dp377
g369
(lp378
g346
asbsS'_Process__subProcess'
p379
Nsg318
g320
sS'_Process__schedule'
p380
Nsb.