(dp1
S'OriginalConfig'
p2
ccopy_reg
_reconstructor
p3
(cWMCore.Configuration
Configuration
p4
c__builtin__
object
p5
NtRp6
(dp7
S'Site'
p8
g3
(cWMCore.Configuration
ConfigSection
p9
g5
NtRp10
(dp11
S'_internal_documentation'
p12
S''
sS'_internal_settings'
p13
c__builtin__
set
p14
((lp15
S'storageSite'
p16
atRp17
sS'_internal_name'
p18
g8
sS'_internal_docstrings'
p19
(dp20
sS'_internal_children'
p21
g14
((ltRp22
sg16
S'T2_US_MIT'
p23
sS'_internal_parent_ref'
p24
NsbsS'_internal_sections'
p25
(lp26
S'General'
p27
aS'JobType'
p28
aS'Data'
p29
ag8
aS'User'
p30
aS'Debug'
p31
asg27
g3
(g9
g5
NtRp32
(dp33
S'transferLogs'
p34
I00
sg12
S''
sg13
g14
((lp35
g34
aS'transferOutputs'
p36
aS'workArea'
p37
aS'requestName'
p38
atRp39
sg18
g27
sg19
(dp40
sg36
I01
sg21
g14
((ltRp41
sg38
S'JUN_pPb_Lambda'
p42
sg24
Nsg37
S'crab_project_pPb_Lambda'
p43
sbsS'_internal_webapps'
p44
(lp45
sg30
g3
(g9
g5
NtRp46
(dp47
g12
S''
sg13
g14
((ltRp48
sg18
g30
sg19
(dp49
sg21
g14
((ltRp50
sg24
NsbsS'_internal_components'
p51
(lp52
sg31
g3
(g9
g5
NtRp53
(dp54
g12
S''
sg13
g14
((ltRp55
sg18
g31
sg19
(dp56
sg21
g14
((ltRp57
sg24
Nsbsg29
g3
(g9
g5
NtRp58
(dp59
S'inputDataset'
p60
S'/PAMinBiasUPC/davidlw-PA2013_FlowCorr_PromptReco_MB_Gplus_ReTracking_v18-25c9a89be536a41c8ccb3c75e9fd9358/USER'
p61
sS'publication'
p62
I01
sS'splitting'
p63
S'LumiBased'
p64
sS'unitsPerJob'
p65
I20
sg12
S''
sg13
g14
((lp66
g60
ag62
ag65
aS'publishDataName'
p67
aS'inputDBS'
p68
ag63
aS'outLFNDirBase'
p69
atRp70
sg67
S'JUN2015_pPb_Lambda'
p71
sg18
g29
sg68
S'phys03'
p72
sg19
(dp73
sg21
g14
((ltRp74
sg69
S'/store/user/saepark/'
p75
sg24
Nsbsg28
g3
(g9
g5
NtRp76
(dp77
g12
S''
sg13
g14
((lp78
S'psetName'
p79
aS'pluginName'
p80
atRp81
sg18
g28
sg19
(dp82
sg80
S'Analysis'
p83
sg21
g14
((ltRp84
sg79
S'lambdaanalyzer_cfg.py'
p85
sg24
NsbsbsS'voGroup'
p86
S''
sS'Server'
p87
S'cmsweb.cern.ch'
p88
sS'instance'
p89
S'prod'
p90
sS'RequestName'
p91
S'150618_220305:saepark_crab_JUN_pPb_Lambda'
p92
sS'voRole'
p93
S'NULL'
p94
sS'Port'
p95
S''
s.